target datalayout = "e-m:e-p270:32:32-p271:32:32-p272:64:64-i64:64-i128:128-f80:128-n8:16:32:64-S128"
target triple = "x86_64-pc-linux-gnu"

; Function Attrs: mustprogress uwtable
define dso_local noundef double @_ZN4absl15random_internal14ChiSquareValueEid(i32 noundef %0, double noundef %1) #0 {
  %3 = alloca double, align 8
  %4 = alloca i32, align 4
  %5 = alloca double, align 8
  %6 = alloca double, align 8
  %7 = alloca i32, align 4
  %8 = alloca double, align 8
  %9 = alloca double, align 8
  %10 = alloca double, align 8
  %11 = alloca double, align 8
  %12 = alloca double, align 8
  %13 = alloca double, align 8
  %14 = alloca double, align 8
  store i32 %0, ptr %4, align 4, !tbaa !4
  store double %1, ptr %5, align 8, !tbaa !8
  call void @llvm.lifetime.start.p0(i64 8, ptr %6) #6
  %15 = load double, ptr %5, align 8, !tbaa !8
  %16 = fsub double 1.000000e+00, %15
  store double %16, ptr %6, align 8, !tbaa !8
  %17 = load i32, ptr %4, align 4, !tbaa !4
  %18 = icmp slt i32 %17, 1
  br i1 %18, label %22, label %19

19:                                               ; preds = %2
  %20 = load double, ptr %6, align 8, !tbaa !8
  %21 = fcmp ogt double %20, 1.000000e+00
  br i1 %21, label %22, label %23

22:                                               ; preds = %19, %2
  store double 0.000000e+00, ptr %3, align 8
  store i32 1, ptr %7, align 4
  br label %90

23:                                               ; preds = %19
  %24 = load i32, ptr %4, align 4, !tbaa !4
  %25 = icmp sgt i32 %24, 150
  br i1 %25, label %26, label %58

26:                                               ; preds = %23
  call void @llvm.lifetime.start.p0(i64 8, ptr %8) #6
  %27 = load double, ptr %6, align 8, !tbaa !8
  %28 = call noundef double @_ZN4absl15random_internal21InverseNormalSurvivalEd(double noundef %27)
  store double %28, ptr %8, align 8, !tbaa !8
  call void @llvm.lifetime.start.p0(i64 8, ptr %9) #6
  %29 = load i32, ptr %4, align 4, !tbaa !4
  %30 = mul nsw i32 9, %29
  %31 = sitofp i32 %30 to double
  %32 = fdiv double 2.000000e+00, %31
  %33 = fsub double 1.000000e+00, %32
  store double %33, ptr %9, align 8, !tbaa !8
  call void @llvm.lifetime.start.p0(i64 8, ptr %10) #6
  %34 = load i32, ptr %4, align 4, !tbaa !4
  %35 = mul nsw i32 9, %34
  %36 = sitofp i32 %35 to double
  %37 = fdiv double 2.000000e+00, %36
  store double %37, ptr %10, align 8, !tbaa !8
  %38 = load double, ptr %10, align 8, !tbaa !8
  %39 = fcmp une double %38, 0.000000e+00
  br i1 %39, label %40, label %54

40:                                               ; preds = %26
  call void @llvm.lifetime.start.p0(i64 8, ptr %11) #6
  %41 = load double, ptr %8, align 8, !tbaa !8
  %42 = load double, ptr %10, align 8, !tbaa !8
  %43 = call double @sqrt(double noundef %42) #6, !tbaa !4
  %44 = load double, ptr %9, align 8, !tbaa !8
  %45 = call double @llvm.fmuladd.f64(double %41, double %43, double %44)
  store double %45, ptr %11, align 8, !tbaa !8
  %46 = load i32, ptr %4, align 4, !tbaa !4
  %47 = sitofp i32 %46 to double
  %48 = load double, ptr %11, align 8, !tbaa !8
  %49 = load double, ptr %11, align 8, !tbaa !8
  %50 = fmul double %48, %49
  %51 = load double, ptr %11, align 8, !tbaa !8
  %52 = fmul double %50, %51
  %53 = fmul double %47, %52
  store double %53, ptr %3, align 8
  store i32 1, ptr %7, align 4
  call void @llvm.lifetime.end.p0(i64 8, ptr %11) #6
  br label %55

54:                                               ; preds = %26
  store i32 0, ptr %7, align 4
  br label %55

55:                                               ; preds = %54, %40
  call void @llvm.lifetime.end.p0(i64 8, ptr %10) #6
  call void @llvm.lifetime.end.p0(i64 8, ptr %9) #6
  call void @llvm.lifetime.end.p0(i64 8, ptr %8) #6
  %56 = load i32, ptr %7, align 4
  switch i32 %56, label %90 [
    i32 0, label %57
  ]

57:                                               ; preds = %55
  br label %58

58:                                               ; preds = %57, %23
  %59 = load double, ptr %6, align 8, !tbaa !8
  %60 = fcmp ole double %59, 0.000000e+00
  br i1 %60, label %61, label %62

61:                                               ; preds = %58
  store double 9.999900e+04, ptr %3, align 8
  store i32 1, ptr %7, align 4
  br label %90

62:                                               ; preds = %58
  call void @llvm.lifetime.start.p0(i64 8, ptr %12) #6
  store double 0.000000e+00, ptr %12, align 8, !tbaa !8
  call void @llvm.lifetime.start.p0(i64 8, ptr %13) #6
  store double 9.999900e+04, ptr %13, align 8, !tbaa !8
  call void @llvm.lifetime.start.p0(i64 8, ptr %14) #6
  %63 = load i32, ptr %4, align 4, !tbaa !4
  %64 = sitofp i32 %63 to double
  %65 = load double, ptr %6, align 8, !tbaa !8
  %66 = call double @sqrt(double noundef %65) #6, !tbaa !4
  %67 = fdiv double %64, %66
  store double %67, ptr %14, align 8, !tbaa !8
  br label %68

68:                                               ; preds = %83, %62
  %69 = load double, ptr %13, align 8, !tbaa !8
  %70 = load double, ptr %12, align 8, !tbaa !8
  %71 = fsub double %69, %70
  %72 = fcmp ogt double %71, 0x3EB0C6F7A0B5ED8D
  br i1 %72, label %73, label %88

73:                                               ; preds = %68
  %74 = load double, ptr %14, align 8, !tbaa !8
  %75 = load i32, ptr %4, align 4, !tbaa !4
  %76 = call noundef double @_ZN4absl15random_internal15ChiSquarePValueEdi(double noundef %74, i32 noundef %75)
  %77 = load double, ptr %6, align 8, !tbaa !8
  %78 = fcmp olt double %76, %77
  br i1 %78, label %79, label %81

79:                                               ; preds = %73
  %80 = load double, ptr %14, align 8, !tbaa !8
  store double %80, ptr %13, align 8, !tbaa !8
  br label %83

81:                                               ; preds = %73
  %82 = load double, ptr %14, align 8, !tbaa !8
  store double %82, ptr %12, align 8, !tbaa !8
  br label %83

83:                                               ; preds = %81, %79
  %84 = load double, ptr %13, align 8, !tbaa !8
  %85 = load double, ptr %12, align 8, !tbaa !8
  %86 = fadd double %84, %85
  %87 = fmul double %86, 5.000000e-01
  store double %87, ptr %14, align 8, !tbaa !8
  br label %68, !llvm.loop !10

88:                                               ; preds = %68
  %89 = load double, ptr %14, align 8, !tbaa !8
  store double %89, ptr %3, align 8
  store i32 1, ptr %7, align 4
  call void @llvm.lifetime.end.p0(i64 8, ptr %14) #6
  call void @llvm.lifetime.end.p0(i64 8, ptr %13) #6
  call void @llvm.lifetime.end.p0(i64 8, ptr %12) #6
  br label %90

90:                                               ; preds = %88, %61, %55, %22
  call void @llvm.lifetime.end.p0(i64 8, ptr %6) #6
  %91 = load double, ptr %3, align 8
  ret double %91
}