; Function Attrs: mustprogress uwtable
define dso_local noundef double @_ZN4absl15random_internal14ChiSquareValueEid(i32 noundef %0, double noundef %1) local_unnamed_addr #0 {
  %3 = fsub double 1.000000e+00, %1
  %4 = icmp slt i32 %0, 1
  %5 = fcmp ogt double %3, 1.000000e+00
  %or.cond = or i1 %4, %5
  br i1 %or.cond, label %.loopexit, label %6

6:                                                ; preds = %2
  %7 = icmp samesign ugt i32 %0, 150
  br i1 %7, label %8, label %.thread

8:                                                ; preds = %6
  %9 = tail call noundef double @_ZN4absl15random_internal21InverseNormalSurvivalEd(double noundef %3)
  %10 = mul nuw nsw i32 %0, 9
  %11 = uitofp nneg i32 %10 to double
  %12 = fdiv double 2.000000e+00, %11
  %13 = fcmp oeq double %12, 0.000000e+00
  br i1 %13, label %.thread, label %14

14:                                               ; preds = %8
  %15 = fsub double 1.000000e+00, %12
  %sqrt = tail call double @llvm.sqrt.f64(double %12)
  %16 = tail call double @llvm.fmuladd.f64(double %9, double %sqrt, double %15)
  %17 = uitofp nneg i32 %0 to double
  %18 = fmul double %16, %16
  %19 = fmul double %16, %18
  %20 = fmul double %19, %17
  br label %.loopexit

.thread:                                          ; preds = %8, %6
  %21 = fcmp ugt double %3, 0.000000e+00
  br i1 %21, label %22, label %.loopexit

22:                                               ; preds = %.thread
  %23 = uitofp nneg i32 %0 to double
  %24 = tail call double @sqrt(double noundef %3) #6, !tbaa !4
  %25 = fdiv double %23, %24
  br label %26

26:                                               ; preds = %22, %26
  %.042 = phi double [ %25, %22 ], [ %30, %26 ]
  %.03041 = phi double [ 9.999900e+04, %22 ], [ %.0..030, %26 ]
  %.03140 = phi double [ 0.000000e+00, %22 ], [ %.031..0, %26 ]
  %27 = tail call noundef double @_ZN4absl15random_internal15ChiSquarePValueEdi(double noundef %.042, i32 noundef %0)
  %28 = fcmp olt double %27, %3
  %.031..0 = select i1 %28, double %.03140, double %.042
  %.0..030 = select i1 %28, double %.042, double %.03041
  %29 = fadd double %.0..030, %.031..0
  %30 = fmul double %29, 5.000000e-01
  %31 = fsub double %.0..030, %.031..0
  %32 = fcmp ogt double %31, 0x3EB0C6F7A0B5ED8D
  br i1 %32, label %26, label %.loopexit, !llvm.loop !8

.loopexit:                                        ; preds = %26, %14, %.thread, %2
  %.033 = phi double [ %20, %14 ], [ 0.000000e+00, %2 ], [ 9.999900e+04, %.thread ], [ %30, %26 ]
  ret double %.033
}